; Function Attrs: nounwind uwtable
define ptr @dt_bauhaus_slider_new_with_range_and_feedback(ptr noundef %0, float noundef %1, float noundef %2, float noundef %3, float noundef %4, i32 noundef %5, i32 noundef %6) local_unnamed_addr #0 {
  %8 = load atomic i64, ptr @dt_bh_get_type.static_g_define_type_id seq_cst, align 8
  %.not.i = icmp eq i64 %8, 0
  br i1 %.not.i, label %9, label %dt_bh_get_type.exit

9:                                                ; preds = %7
  %10 = tail call i32 @g_once_init_enter(ptr noundef nonnull @dt_bh_get_type.static_g_define_type_id) #19
  %.not4.i = icmp eq i32 %10, 0
  br i1 %.not4.i, label %dt_bh_get_type.exit, label %11

11:                                               ; preds = %9
  %12 = tail call fastcc i64 @dt_bh_get_type_once()
  tail call void @g_once_init_leave(ptr noundef nonnull @dt_bh_get_type.static_g_define_type_id, i64 noundef %12) #19
  br label %dt_bh_get_type.exit

dt_bh_get_type.exit:                              ; preds = %7, %9, %11
  %13 = load i64, ptr @dt_bh_get_type.static_g_define_type_id, align 8, !tbaa !6
  %14 = tail call ptr (i64, ptr, ...) @g_object_new(i64 noundef %13, ptr noundef null) #19
  %15 = load atomic i64, ptr @dt_bh_get_type.static_g_define_type_id seq_cst, align 8
  %.not.i.i = icmp eq i64 %15, 0
  br i1 %.not.i.i, label %16, label %DT_BAUHAUS_WIDGET.exit

16:                                               ; preds = %dt_bh_get_type.exit
  %17 = tail call i32 @g_once_init_enter(ptr noundef nonnull @dt_bh_get_type.static_g_define_type_id) #19
  %.not4.i.i = icmp eq i32 %17, 0
  br i1 %.not4.i.i, label %DT_BAUHAUS_WIDGET.exit, label %18

18:                                               ; preds = %16
  %19 = tail call fastcc i64 @dt_bh_get_type_once()
  tail call void @g_once_init_leave(ptr noundef nonnull @dt_bh_get_type.static_g_define_type_id, i64 noundef %19) #19
  br label %DT_BAUHAUS_WIDGET.exit

DT_BAUHAUS_WIDGET.exit:                           ; preds = %dt_bh_get_type.exit, %16, %18
  %20 = load i64, ptr @dt_bh_get_type.static_g_define_type_id, align 8, !tbaa !6
  %21 = tail call ptr @g_type_check_instance_cast(ptr noundef %14, i64 noundef %20) #19
  %22 = getelementptr inbounds nuw i8, ptr %21, i64 40
  store i32 1, ptr %22, align 8, !tbaa !105
  %23 = getelementptr inbounds nuw i8, ptr %21, i64 48
  store ptr %0, ptr %23, align 8, !tbaa !161
  %24 = getelementptr inbounds nuw i8, ptr %21, i64 408
  %25 = getelementptr inbounds nuw i8, ptr %21, i64 440
  store float %1, ptr %25, align 8, !tbaa !170
  %26 = getelementptr inbounds nuw i8, ptr %21, i64 432
  store float %1, ptr %26, align 8, !tbaa !171
  %27 = getelementptr inbounds nuw i8, ptr %21, i64 424
  store float %1, ptr %27, align 8, !tbaa !121
  %28 = getelementptr inbounds nuw i8, ptr %21, i64 444
  store float %2, ptr %28, align 4, !tbaa !172
  %29 = getelementptr inbounds nuw i8, ptr %21, i64 436
  store float %2, ptr %29, align 4, !tbaa !173
  %30 = getelementptr inbounds nuw i8, ptr %21, i64 428
  store float %2, ptr %30, align 4, !tbaa !120
  %31 = getelementptr inbounds nuw i8, ptr %21, i64 416
  store float %3, ptr %31, align 8, !tbaa !217
  %32 = getelementptr inbounds nuw i8, ptr %21, i64 420
  store float %4, ptr %32, align 4, !tbaa !175
  %33 = fsub reassoc nsz arcp contract afn float %4, %1
  %34 = fsub reassoc nsz arcp contract afn float %2, %1
  %35 = fdiv reassoc nsz arcp contract afn float %33, %34
  store float %35, ptr %24, align 8, !tbaa !143
  %36 = getelementptr inbounds nuw i8, ptr %21, i64 412
  store float %35, ptr %36, align 4, !tbaa !116
  %37 = getelementptr inbounds nuw i8, ptr %21, i64 448
  store i32 %5, ptr %37, align 8, !tbaa !119
  %38 = getelementptr inbounds nuw i8, ptr %21, i64 488
  store ptr @.str.45, ptr %38, align 8, !tbaa !174
  %39 = getelementptr inbounds nuw i8, ptr %21, i64 496
  store float 1.000000e+00, ptr %39, align 8, !tbaa !122
  %40 = getelementptr inbounds nuw i8, ptr %21, i64 500
  store float 0.000000e+00, ptr %40, align 4, !tbaa !218
  %41 = getelementptr inbounds nuw i8, ptr %21, i64 464
  store i32 0, ptr %41, align 8, !tbaa !219
  %42 = getelementptr inbounds nuw i8, ptr %21, i64 456
  store ptr null, ptr %42, align 8, !tbaa !220
  %43 = getelementptr inbounds nuw i8, ptr %21, i64 472
  store ptr null, ptr %43, align 8, !tbaa !221
  %44 = getelementptr inbounds nuw i8, ptr %21, i64 480
  %45 = trunc i32 %6 to i8
  %46 = load i8, ptr %44, align 8
  %47 = and i8 %45, 1
  %48 = and i8 %46, -2
  %49 = or disjoint i8 %48, %47
  store i8 %49, ptr %44, align 8
  %50 = getelementptr inbounds nuw i8, ptr %21, i64 504
  %51 = load i8, ptr %50, align 8
  %52 = and i8 %51, -4
  store i8 %52, ptr %50, align 8
  %53 = getelementptr inbounds nuw i8, ptr %21, i64 508
  store i32 0, ptr %53, align 4, !tbaa !222
  %54 = getelementptr inbounds nuw i8, ptr %21, i64 512
  store ptr @_default_linear_curve, ptr %54, align 8, !tbaa !142
  %55 = tail call i64 @gtk_widget_get_type() #20
  %56 = tail call ptr @g_type_check_instance_cast(ptr noundef %21, i64 noundef %55) #19
  tail call void @gtk_widget_set_name(ptr noundef %56, ptr noundef nonnull @.str.46) #19
  %57 = tail call ptr @g_type_check_instance_cast(ptr noundef %21, i64 noundef %55) #19
  ret ptr %57
}